ccopy_reg
_reconstructor
p0
(cITkObject
ITkObject
p1
c__builtin__
object
p2
Ntp3
Rp4
(dp5
S'pads'
p6
(lp7
I1
aI2
aI3
aI4
aI5
aI6
aI7
aI8
aI9
aI10
aI11
aI12
aI13
aI14
aI15
aI16
aI17
aI18
aI19
aI20
aI21
aI22
aI23
aI24
aI25
aI26
aI27
aI28
aI29
aI30
aI31
aI32
aI33
aI34
aI35
aI36
aI37
aI38
aI39
aI40
aI41
aI42
aI43
aI44
aI45
aI46
aI47
aI48
aI49
aI50
aI51
aI52
aI53
aI54
aI55
aI56
aI57
aI58
aI59
aI60
aI61
aI62
aI63
aI64
aI65
aI66
aI67
aI68
aI69
aI70
aI71
aI72
aI73
aI74
aI75
aI76
aI77
aI78
aI79
aI80
aI81
aI82
aI83
aI84
aI85
aI86
aI87
aI88
aI89
aI90
aI91
aI92
aI93
aI94
aI95
aI96
aI97
aI98
aI99
aI100
aI101
aI102
aI103
aI104
aI105
aI106
aI107
aI108
aI109
aI110
aI111
aI112
aI113
aI114
aI115
aI116
aI117
aI118
aI119
aI120
aI121
aI122
aI123
aI124
aI125
aI126
aI127
aI128
aI129
aI130
aI131
aI132
aI133
aI134
aI135
aI136
aI137
aI138
aI139
aI140
aI141
aI142
aI143
aI144
aI145
aI146
aI147
aI148
aI149
aI150
aI151
aI152
aI153
aI154
aI155
aI156
aI157
aI158
aI159
aI160
aI161
aI162
aI163
aI164
aI165
aI166
aI167
aI168
aI169
aI170
aI171
aI172
aI173
aI174
aI175
aI176
aI177
aI178
aI179
aI180
aI181
aI182
aI183
aI184
aI185
aI186
aI187
aI188
aI189
aI190
aI191
aI192
aI193
aI194
aI195
aI196
aI197
aI198
aI199
aI200
aI201
aI202
aI203
aI204
aI205
aI206
aI207
aI208
aI209
aI210
aI211
aI212
aI213
aI214
aI215
aI216
aI217
aI218
aI15
aI16
aI17
aI18
aI19
aI20
aI21
aI22
aI23
aI24
aI25
aI26
aI27
aI28
aI29
aI30
aI31
aI32
aI33
aI34
aI35
aI36
aI37
aI38
aI39
aI40
aI41
aI42
aI43
aI44
aI45
aI46
aI47
aI48
aI49
aI50
aI51
aI52
aI53
aI54
aI55
aI56
aI57
aI58
aI59
aI60
aI61
aI62
aI63
aI64
aI65
aI66
aI67
aI68
aI69
aI70
aI71
aI72
aI73
aI74
aI75
aI76
aI77
aI78
aI79
aI80
aI81
aI82
aI83
aI84
aI85
aI86
aI87
aI88
aI89
aI90
aI91
aI92
aI93
aI94
aI95
aI96
aI97
aI98
aI99
aI100
aI101
aI102
aI1
aI2
aI3
aI4
aI5
aI6
aI7
aI8
aI9
aI10
aI11
aI12
aI13
aI14
aI15
aI16
aI17
aI18
aI19
aI20
aI21
aI22
aI23
aI24
aI25
aI26
aI27
aI28
aI29
aI30
aI31
aI32
aI33
aI34
aI35
aI36
aI37
aI38
aI39
aI40
aI41
aI42
aI43
aI44
aI45
aI46
aI47
aI48
aI49
aI50
aI51
aI52
aI53
aI54
aI55
aI56
aI57
aI58
aI59
aI60
aI61
aI62
aI63
aI64
aI65
aI66
aI67
aI68
aI69
aI70
aI71
aI72
aI73
aI74
aI75
aI76
aI77
aI78
aI79
aI80
aI81
aI82
aI83
aI84
aI85
aI86
aI87
aI88
aI89
aI90
aI91
aI92
aI93
aI94
aI95
aI96
aI97
aI98
aI99
aI100
aI101
aI102
aI1
aI2
aI3
aI4
aI5
aI6
aI7
aI8
aI9
aI10
aI11
aI12
aI13
aI14
aI15
aI16
aI17
aI18
aI19
aI20
aI21
aI22
aI23
aI24
aI25
aI26
aI27
aI28
aI29
aI30
aI31
aI32
aI33
aI34
aI35
aI36
aI37
aI38
aI39
aI40
aI41
aI42
aI43
aI44
aI45
aI46
aI47
aI48
aI49
aI50
aI51
aI52
aI53
aI54
aI55
aI56
aI57
aI58
aI59
aI60
aI61
aI62
aI63
aI64
aI65
aI66
aI67
aI68
aI69
aI70
aI71
aI72
aI73
aI74
aI75
aI76
aI77
aI78
aI79
aI80
aI81
aI82
aI83
aI84
aI85
aI86
aI87
aI88
aI89
aI90
aI91
aI92
aI93
aI94
aI95
aI96
aI97
aI98
aI99
aI100
aI101
aI102
aI1
aI2
aI3
aI4
aI5
aI6
aI7
aI8
aI9
aI10
aI11
aI12
aI13
aI14
aI15
aI16
aI17
aI18
aI19
aI20
aI21
aI22
aI23
aI24
aI25
aI26
aI27
aI28
aI29
aI30
aI31
aI32
aI33
aI34
aI35
aI36
aI37
aI38
aI39
aI40
aI41
aI42
aI43
aI44
aI45
aI46
aI47
aI48
aI49
aI50
aI51
aI52
aI53
aI54
aI55
aI56
aI57
aI58
aI59
aI60
aI61
aI62
aI63
aI64
aI65
aI66
aI67
aI68
aI69
aI70
aI71
aI72
aI73
aI74
aI75
aI76
aI77
aI78
aI79
aI80
aI81
aI82
aI83
aI84
aI85
aI86
aI87
aI88
aI89
aI90
aI91
aI92
aI93
aI94
aI95
aI96
aI97
aI98
aI99
aI100
aI101
aI102
aI1
aI2
aI3
aI4
aI5
aI6
aI7
aI8
aI9
aI10
aI11
aI12
aI13
aI14
aI15
aI16
aI17
aI18
aI19
aI20
aI21
aI22
aI23
aI24
aI25
aI26
aI27
aI28
aI29
aI30
aI31
aI32
aI33
aI34
aI35
aI36
aI37
aI38
aI39
aI40
aI41
aI42
aI43
aI44
aI45
aI46
aI47
aI48
aI49
aI50
aI51
aI52
aI53
aI54
aI55
aI56
aI57
aI58
aI59
aI60
aI61
aI62
aI63
aI64
aI65
aI66
aI67
aI68
aI69
aI70
aI71
aI72
aI73
aI74
aI75
aI76
aI77
aI78
aI79
aI80
aI81
aI82
aI83
aI84
aI85
aI86
aI87
aI88
aI89
aI90
aI91
aI92
aI93
aI94
aI95
aI96
aI97
aI98
aI99
aI100
aI101
aI102
aI1
aI2
aI3
aI4
aI5
aI6
aI7
aI8
aI9
aI10
aI11
aI12
aI13
aI14
aI15
aI16
aI17
aI18
aI19
aI20
aI21
aI22
aI23
aI24
aI25
aI26
aI27
aI28
aI29
aI30
aI31
aI32
aI33
aI34
aI35
aI36
aI37
aI38
aI39
aI40
aI41
aI42
aI43
aI44
aI45
aI46
aI47
aI48
aI49
aI50
aI51
aI52
aI53
aI54
aI55
aI56
aI57
aI58
aI59
aI60
aI61
aI62
aI63
aI64
aI65
aI66
aI67
aI68
aI69
aI70
aI71
aI72
aI73
aI74
aI75
aI76
aI77
aI78
aI79
aI80
aI81
aI82
aI83
aI84
aI85
aI86
aI87
aI88
aI89
aI90
aI91
aI92
aI93
aI94
aI95
aI96
aI97
aI98
aI99
aI100
aI101
aI102
aI1
aI2
aI3
aI4
aI5
aI6
aI7
aI8
aI9
aI10
aI11
aI12
aI13
aI14
aI15
aI16
aI17
aI18
aI19
aI20
aI21
aI22
aI23
aI24
aI25
aI26
aI27
aI28
aI29
aI30
aI31
aI32
aI33
aI34
aI35
aI36
aI37
aI38
aI39
aI40
aI41
aI42
aI43
aI44
aI45
aI46
aI47
aI48
aI49
aI50
aI51
aI52
aI53
aI54
aI55
aI56
aI57
aI58
aI59
aI60
aI61
aI62
aI63
aI64
aI65
aI66
aI67
aI68
aI69
aI70
aI71
aI72
aI73
aI74
aI75
aI76
aI77
aI78
aI79
aI80
aI81
aI82
aI83
aI84
aI85
aI86
aI87
aI88
aI89
aI90
aI91
aI92
aI93
aI94
aI95
aI96
aI97
aI98
aI99
aI100
aI101
aI102
aI1
aI2
aI3
aI4
aI5
aI6
aI7
aI8
aI9
aI10
aI11
aI12
aI13
aI14
aI15
aI16
aI17
aI18
aI19
aI20
aI21
aI22
aI23
aI24
aI25
aI26
aI27
aI28
aI29
aI30
aI31
aI32
aI33
aI34
aI35
aI36
aI37
aI38
aI39
aI40
aI41
aI42
aI43
aI44
aI45
aI46
aI47
aI48
aI49
aI50
aI51
aI52
aI53
aI54
aI55
aI56
aI57
aI58
aI59
aI60
aI61
aI62
aI63
aI64
aI65
aI66
aI67
aI68
aI69
aI70
aI71
aI72
aI73
aI74
aI75
aI76
aI77
aI78
aI79
aI80
aI81
aI82
aI83
aI84
aI85
aI86
aI87
aI88
aI89
aI90
aI91
aI92
aI93
aI94
aI95
aI96
aI97
aI98
aI99
aI100
aI101
aI102
asS'wires'
p8
(lp9
(S'AMUXOUT'
p10
S"Analog 'spy' output"
p11
S'1'
p12
tp13
a(S'TESTRES'
p14
S'Reference reisitance'
p15
g12
tp16
a(S'padTESTCOM'
p17
S"Discriminator bias 'spy' point"
p18
g12
tp19
a(S'GNDD'
p20
S'Digital  Ground'
p21
g12
tp22
a(S'VDDD'
p23
S'Regulated Power for Digital'
p24
g12
tp25
a(S'SCAN_ENABLE'
p26
S'Enable Scan Path Chains'
p27
g12
tp28
a(g20
g21
g12
tp29
a(S'SDI_CLK'
p30
S'Input For CLK ScanPath Chain'
p31
g12
tp32
a(g20
g21
g12
tp33
a(S'SDO_CLK'
p34
S'Output For CLK ScanPath Chain'
p35
g12
tp36
a(g20
g21
g12
tp37
a(S'SDI_BC'
p38
S'Input For BC ScanPath Chain'
p39
g12
tp40
a(g20
g21
g12
tp41
a(S'SDO_BC'
p42
S'Output For BC ScanPath Chain'
p43
g12
tp44
a(g23
g24
g12
tp45
a(S'abcup_pad'
p46
S''
p47
g12
tp48
a(g20
g21
g12
tp49
a(S'RSTB_pad'
p50
S'External Hard Reset Signal'
p51
g12
tp52
a(g23
g24
g12
tp53
a(g20
g21
g12
tp54
a(S'XOFFRB'
p55
S'Data signal (bidirectional)'
p56
g12
tp57
a(S'XOFFR'
p58
g56
g12
tp59
a(g20
g21
g12
tp60
a(S'DATRB'
p61
g56
g12
tp62
a(S'DATR'
p63
g56
g12
tp64
a(S'DVSS'
p65
S'0V Ground Specific for ESD Return'
p66
g12
tp67
a(S'dataOutFC2_padN'
p68
S'Fast ClusterFinder data output'
p69
g12
tp70
a(S'dataOutFC2_padP'
p71
g69
g12
tp72
a(g65
g66
g12
tp73
a(S'dataOutFC1_padN'
p74
g69
g12
tp75
a(S'dataOutFC1_padP'
p76
g69
g12
tp77
a(S'DVDD'
p78
S'External Power for Digital'
p79
g12
tp80
a(g23
g24
g12
tp81
a(g20
g21
g12
tp82
a(g78
g79
g12
tp83
a(g23
g24
g12
tp84
a(g20
g21
g12
tp85
a(g78
g79
g12
tp86
a(g23
g24
g12
tp87
a(g20
g21
g12
tp88
a(S'DVSSA'
p89
g66
g12
tp90
a(S'AVDD'
p91
S'External Power for Analog'
p92
g12
tp93
a(S'GNDA'
p94
S'Analog Ground'
p95
g12
tp96
a(S'VDDA'
p97
S'Regulated Power for Analog'
p98
g12
tp99
a(S'GNDIt'
p100
S'0V Analog Ground to ESD Branch'
p101
g12
tp102
a(g91
g92
g12
tp103
a(g94
g95
g12
tp104
a(g97
g98
g12
tp105
a(g100
S'0V analogue Ground to FE branch'
p106
g12
tp107
a(g91
g92
g12
tp108
a(g94
g95
g12
tp109
a(g97
g98
g12
tp110
a(g100
g106
g12
tp111
a(g91
g92
g12
tp112
a(g94
g95
g12
tp113
a(g97
g98
g12
tp114
a(S'GNDIT'
p115
g106
g12
tp116
a(g89
g66
g12
tp117
a(g65
g66
g12
tp118
a(g23
g24
g12
tp119
a(g78
g79
g12
tp120
a(g20
g21
g12
tp121
a(g23
g24
g12
tp122
a(g78
g79
g12
tp123
a(g20
g21
g12
tp124
a(S'padID<4>'
p125
S'Chip Address'
p126
g12
tp127
a(S'padID<3>'
p128
g126
g12
tp129
a(S'padID<2>'
p130
g126
g12
tp131
a(S'padID<1>'
p132
g126
g12
tp133
a(S'padID<0>'
p134
g126
g12
tp135
a(S'padTerm'
p136
S'SLVS Termination On/Off'
p137
g12
tp138
a(S'FastCLK_padP'
p139
S'Fast ClusterFinder clock input'
p140
g12
tp141
a(S'FastCLK_padN'
p142
g140
g12
tp143
a(g20
g21
g12
tp144
a(S'DATL'
p145
g56
g12
tp146
a(S'DATLB'
p147
g56
g12
tp148
a(g65
g66
g12
tp149
a(S'XOFFL'
p150
S'XDFF signal (bidirectional)'
p151
g12
tp152
a(S'XOFFLB'
p153
g151
g12
tp154
a(S'padShuntCtrl'
p155
S'Shunt Device Control (analogue signal)'
p156
g12
tp157
a(S'padDisable_RegD'
p158
S'Disable Regulator (Digital)'
p159
g12
tp160
a(S'padDisable_RegA'
p161
S'Disable Regulator (Analogue)'
p162
g12
tp163
a(S'Pad_Label_Not_Found'
p164
g47
g12
tp165
a(S'LONERTHREE_padP'
p166
S'Multiplexed R3 L1 input (80mb/s)'
p167
g12
tp168
a(S'LONERTHREE_padN'
p169
g167
g12
tp170
a(S'GNDx'
p171
g47
g12
tp172
a(S'COM_LZERO_padP'
p173
S'Multiplexed Com L0 input (80mb/s)'
p174
g12
tp175
a(S'COM_LZERO_padN'
p176
g174
g12
tp177
a(g171
g47
g12
tp178
a(S'CLK_padP'
p179
S'Readout Rate clock input'
p180
g12
tp181
a(S'CLK_padN'
p182
g180
g12
tp183
a(g171
g47
g12
tp184
a(S'BC_padP'
p185
S'40 Mhz clock input'
p186
g12
tp187
a(S'BC_padN'
p188
g186
g12
tp189
a(S'AGNDIt'
p190
S'Direct to preamp imput GND'
p191
g12
tp192
a(g190
g191
g12
tp193
a(g190
g191
g12
tp194
a(g190
g191
g12
tp195
a(g190
g191
g12
tp196
a(g190
g191
g12
tp197
a(g190
g191
g12
tp198
a(g190
g191
g12
tp199
a(g10
g11
S'2'
p200
tp201
a(g14
g15
g200
tp202
a(g17
g18
g200
tp203
a(g20
g21
g200
tp204
a(g23
g24
g200
tp205
a(g26
g27
g200
tp206
a(g20
g21
g200
tp207
a(g30
g31
g200
tp208
a(g20
g21
g200
tp209
a(g34
g35
g200
tp210
a(g20
g21
g200
tp211
a(g38
g39
g200
tp212
a(g20
g21
g200
tp213
a(g42
g43
g200
tp214
a(g23
g24
g200
tp215
a(g46
g47
g200
tp216
a(g20
g21
g200
tp217
a(g50
g51
g200
tp218
a(g23
g24
g200
tp219
a(g20
g21
g200
tp220
a(g55
g56
g200
tp221
a(g58
g56
g200
tp222
a(g20
g21
g200
tp223
a(g61
g56
g200
tp224
a(g63
g56
g200
tp225
a(g65
g66
g200
tp226
a(g68
g69
g200
tp227
a(g71
g69
g200
tp228
a(g65
g66
g200
tp229
a(g74
g69
g200
tp230
a(g76
g69
g200
tp231
a(g78
g79
g200
tp232
a(g23
g24
g200
tp233
a(g20
g21
g200
tp234
a(g78
g79
g200
tp235
a(g23
g24
g200
tp236
a(g20
g21
g200
tp237
a(g78
g79
g200
tp238
a(g23
g24
g200
tp239
a(g20
g21
g200
tp240
a(g89
g66
g200
tp241
a(g91
g92
g200
tp242
a(g94
g95
g200
tp243
a(g97
g98
g200
tp244
a(g100
g101
g200
tp245
a(g91
g92
g200
tp246
a(g94
g95
g200
tp247
a(g97
g98
g200
tp248
a(g100
g106
g200
tp249
a(g91
g92
g200
tp250
a(g94
g95
g200
tp251
a(g97
g98
g200
tp252
a(g100
g106
g200
tp253
a(g91
g92
g200
tp254
a(g94
g95
g200
tp255
a(g97
g98
g200
tp256
a(g115
g106
g200
tp257
a(g89
g66
g200
tp258
a(g65
g66
g200
tp259
a(g23
g24
g200
tp260
a(g78
g79
g200
tp261
a(g20
g21
g200
tp262
a(g23
g24
g200
tp263
a(g78
g79
g200
tp264
a(g20
g21
g200
tp265
a(g125
g126
g200
tp266
a(g128
g126
g200
tp267
a(g130
g126
g200
tp268
a(g132
g126
g200
tp269
a(g134
g126
g200
tp270
a(g136
g137
g200
tp271
a(g139
g140
g200
tp272
a(g142
g140
g200
tp273
a(g20
g21
g200
tp274
a(g145
g56
g200
tp275
a(g147
g56
g200
tp276
a(g65
g66
g200
tp277
a(g150
g151
g200
tp278
a(g153
g151
g200
tp279
a(g155
g156
g200
tp280
a(g158
g159
g200
tp281
a(g161
g162
g200
tp282
a(g164
g47
g200
tp283
a(g166
g167
g200
tp284
a(g169
g167
g200
tp285
a(g171
g47
g200
tp286
a(g173
g174
g200
tp287
a(g176
g174
g200
tp288
a(g171
g47
g200
tp289
a(g179
g180
g200
tp290
a(g182
g180
g200
tp291
a(g171
g47
g200
tp292
a(g185
g186
g200
tp293
a(g188
g186
g200
tp294
a(g190
g191
g200
tp295
a(g190
g191
g200
tp296
a(g190
g191
g200
tp297
a(g190
g191
g200
tp298
a(g190
g191
g200
tp299
a(g190
g191
g200
tp300
a(g190
g191
g200
tp301
a(g190
g191
g200
tp302
a(g10
g11
S'3'
p303
tp304
a(g14
g15
g303
tp305
a(g17
g18
g303
tp306
a(g20
g21
g303
tp307
a(g23
g24
g303
tp308
a(g26
g27
g303
tp309
a(g20
g21
g303
tp310
a(g30
g31
g303
tp311
a(g20
g21
g303
tp312
a(g34
g35
g303
tp313
a(g20
g21
g303
tp314
a(g38
g39
g303
tp315
a(g20
g21
g303
tp316
a(g42
g43
g303
tp317
a(g23
g24
g303
tp318
a(g46
g47
g303
tp319
a(g20
g21
g303
tp320
a(g50
g51
g303
tp321
a(g23
g24
g303
tp322
a(g20
g21
g303
tp323
a(g55
g56
g303
tp324
a(g58
g56
g303
tp325
a(g20
g21
g303
tp326
a(g61
g56
g303
tp327
a(g63
g56
g303
tp328
a(g65
g66
g303
tp329
a(g68
g69
g303
tp330
a(g71
g69
g303
tp331
a(g65
g66
g303
tp332
a(g74
g69
g303
tp333
a(g76
g69
g303
tp334
a(g78
g79
g303
tp335
a(g23
g24
g303
tp336
a(g20
g21
g303
tp337
a(g78
g79
g303
tp338
a(g23
g24
g303
tp339
a(g20
g21
g303
tp340
a(g78
g79
g303
tp341
a(g23
g24
g303
tp342
a(g20
g21
g303
tp343
a(g89
g66
g303
tp344
a(g91
g92
g303
tp345
a(g94
g95
g303
tp346
a(g97
g98
g303
tp347
a(g100
g101
g303
tp348
a(g91
g92
g303
tp349
a(g94
g95
g303
tp350
a(g97
g98
g303
tp351
a(g100
g106
g303
tp352
a(g91
g92
g303
tp353
a(g94
g95
g303
tp354
a(g97
g98
g303
tp355
a(g100
g106
g303
tp356
a(g91
g92
g303
tp357
a(g94
g95
g303
tp358
a(g97
g98
g303
tp359
a(g115
g106
g303
tp360
a(g89
g66
g303
tp361
a(g65
g66
g303
tp362
a(g23
g24
g303
tp363
a(g78
g79
g303
tp364
a(g20
g21
g303
tp365
a(g23
g24
g303
tp366
a(g78
g79
g303
tp367
a(g20
g21
g303
tp368
a(g125
g126
g303
tp369
a(g128
g126
g303
tp370
a(g130
g126
g303
tp371
a(g132
g126
g303
tp372
a(g134
g126
g303
tp373
a(g136
g137
g303
tp374
a(g139
g140
g303
tp375
a(g142
g140
g303
tp376
a(g20
g21
g303
tp377
a(g145
g56
g303
tp378
a(g147
g56
g303
tp379
a(g65
g66
g303
tp380
a(g150
g151
g303
tp381
a(g153
g151
g303
tp382
a(g155
g156
g303
tp383
a(g158
g159
g303
tp384
a(g161
g162
g303
tp385
a(g164
g47
g303
tp386
a(g166
g167
g303
tp387
a(g169
g167
g303
tp388
a(g171
g47
g303
tp389
a(g173
g174
g303
tp390
a(g176
g174
g303
tp391
a(g171
g47
g303
tp392
a(g179
g180
g303
tp393
a(g182
g180
g303
tp394
a(g171
g47
g303
tp395
a(g185
g186
g303
tp396
a(g188
g186
g303
tp397
a(g190
g191
g303
tp398
a(g190
g191
g303
tp399
a(g190
g191
g303
tp400
a(g190
g191
g303
tp401
a(g190
g191
g303
tp402
a(g190
g191
g303
tp403
a(g190
g191
g303
tp404
a(g190
g191
g303
tp405
a(g10
g11
S'4'
p406
tp407
a(g14
g15
g406
tp408
a(g17
g18
g406
tp409
a(g20
g21
g406
tp410
a(g23
g24
g406
tp411
a(g26
g27
g406
tp412
a(g20
g21
g406
tp413
a(g30
g31
g406
tp414
a(g20
g21
g406
tp415
a(g34
g35
g406
tp416
a(g20
g21
g406
tp417
a(g38
g39
g406
tp418
a(g20
g21
g406
tp419
a(g42
g43
g406
tp420
a(g23
g24
g406
tp421
a(g46
g47
g406
tp422
a(g20
g21
g406
tp423
a(g50
g51
g406
tp424
a(g23
g24
g406
tp425
a(g20
g21
g406
tp426
a(g55
g56
g406
tp427
a(g58
g56
g406
tp428
a(g20
g21
g406
tp429
a(g61
g56
g406
tp430
a(g63
g56
g406
tp431
a(g65
g66
g406
tp432
a(g68
g69
g406
tp433
a(g71
g69
g406
tp434
a(g65
g66
g406
tp435
a(g74
g69
g406
tp436
a(g76
g69
g406
tp437
a(g78
g79
g406
tp438
a(g23
g24
g406
tp439
a(g20
g21
g406
tp440
a(g78
g79
g406
tp441
a(g23
g24
g406
tp442
a(g20
g21
g406
tp443
a(g78
g79
g406
tp444
a(g23
g24
g406
tp445
a(g20
g21
g406
tp446
a(g89
g66
g406
tp447
a(g91
g92
g406
tp448
a(g94
g95
g406
tp449
a(g97
g98
g406
tp450
a(g100
g101
g406
tp451
a(g91
g92
g406
tp452
a(g94
g95
g406
tp453
a(g97
g98
g406
tp454
a(g100
g106
g406
tp455
a(g91
g92
g406
tp456
a(g94
g95
g406
tp457
a(g97
g98
g406
tp458
a(g100
g106
g406
tp459
a(g91
g92
g406
tp460
a(g94
g95
g406
tp461
a(g97
g98
g406
tp462
a(g115
g106
g406
tp463
a(g89
g66
g406
tp464
a(g65
g66
g406
tp465
a(g23
g24
g406
tp466
a(g78
g79
g406
tp467
a(g20
g21
g406
tp468
a(g23
g24
g406
tp469
a(g78
g79
g406
tp470
a(g20
g21
g406
tp471
a(g125
g126
g406
tp472
a(g128
g126
g406
tp473
a(g130
g126
g406
tp474
a(g132
g126
g406
tp475
a(g134
g126
g406
tp476
a(g136
g137
g406
tp477
a(g139
g140
g406
tp478
a(g142
g140
g406
tp479
a(g20
g21
g406
tp480
a(g145
g56
g406
tp481
a(g147
g56
g406
tp482
a(g65
g66
g406
tp483
a(g150
g151
g406
tp484
a(g153
g151
g406
tp485
a(g155
g156
g406
tp486
a(g158
g159
g406
tp487
a(g161
g162
g406
tp488
a(g164
g47
g406
tp489
a(g166
g167
g406
tp490
a(g169
g167
g406
tp491
a(g171
g47
g406
tp492
a(g173
g174
g406
tp493
a(g176
g174
g406
tp494
a(g171
g47
g406
tp495
a(g179
g180
g406
tp496
a(g182
g180
g406
tp497
a(g171
g47
g406
tp498
a(g185
g186
g406
tp499
a(g188
g186
g406
tp500
a(g190
g191
g406
tp501
a(g190
g191
g406
tp502
a(g190
g191
g406
tp503
a(g190
g191
g406
tp504
a(g190
g191
g406
tp505
a(g190
g191
g406
tp506
a(g190
g191
g406
tp507
a(g190
g191
g406
tp508
a(g10
g11
S'5'
p509
tp510
a(g14
g15
g509
tp511
a(g17
g18
g509
tp512
a(g20
g21
g509
tp513
a(g23
g24
g509
tp514
a(g26
g27
g509
tp515
a(g20
g21
g509
tp516
a(g30
g31
g509
tp517
a(g20
g21
g509
tp518
a(g34
g35
g509
tp519
a(g20
g21
g509
tp520
a(g38
g39
g509
tp521
a(g20
g21
g509
tp522
a(g42
g43
g509
tp523
a(g23
g24
g509
tp524
a(g46
g47
g509
tp525
a(g20
g21
g509
tp526
a(g50
g51
g509
tp527
a(g23
g24
g509
tp528
a(g20
g21
g509
tp529
a(g55
g56
g509
tp530
a(g58
g56
g509
tp531
a(g20
g21
g509
tp532
a(g61
g56
g509
tp533
a(g63
g56
g509
tp534
a(g65
g66
g509
tp535
a(g68
g69
g509
tp536
a(g71
g69
g509
tp537
a(g65
g66
g509
tp538
a(g74
g69
g509
tp539
a(g76
g69
g509
tp540
a(g78
g79
g509
tp541
a(g23
g24
g509
tp542
a(g20
g21
g509
tp543
a(g78
g79
g509
tp544
a(g23
g24
g509
tp545
a(g20
g21
g509
tp546
a(g78
g79
g509
tp547
a(g23
g24
g509
tp548
a(g20
g21
g509
tp549
a(g89
g66
g509
tp550
a(g91
g92
g509
tp551
a(g94
g95
g509
tp552
a(g97
g98
g509
tp553
a(g100
g101
g509
tp554
a(g91
g92
g509
tp555
a(g94
g95
g509
tp556
a(g97
g98
g509
tp557
a(g100
g106
g509
tp558
a(g91
g92
g509
tp559
a(g94
g95
g509
tp560
a(g97
g98
g509
tp561
a(g100
g106
g509
tp562
a(g91
g92
g509
tp563
a(g94
g95
g509
tp564
a(g97
g98
g509
tp565
a(g115
g106
g509
tp566
a(g89
g66
g509
tp567
a(g65
g66
g509
tp568
a(g23
g24
g509
tp569
a(g78
g79
g509
tp570
a(g20
g21
g509
tp571
a(g23
g24
g509
tp572
a(g78
g79
g509
tp573
a(g20
g21
g509
tp574
a(g125
g126
g509
tp575
a(g128
g126
g509
tp576
a(g130
g126
g509
tp577
a(g132
g126
g509
tp578
a(g134
g126
g509
tp579
a(g136
g137
g509
tp580
a(g139
g140
g509
tp581
a(g142
g140
g509
tp582
a(g20
g21
g509
tp583
a(g145
g56
g509
tp584
a(g147
g56
g509
tp585
a(g65
g66
g509
tp586
a(g150
g151
g509
tp587
a(g153
g151
g509
tp588
a(g155
g156
g509
tp589
a(g158
g159
g509
tp590
a(g161
g162
g509
tp591
a(g164
g47
g509
tp592
a(g166
g167
g509
tp593
a(g169
g167
g509
tp594
a(g171
g47
g509
tp595
a(g173
g174
g509
tp596
a(g176
g174
g509
tp597
a(g171
g47
g509
tp598
a(g179
g180
g509
tp599
a(g182
g180
g509
tp600
a(g171
g47
g509
tp601
a(g185
g186
g509
tp602
a(g188
g186
g509
tp603
a(g190
g191
g509
tp604
a(g190
g191
g509
tp605
a(g190
g191
g509
tp606
a(g190
g191
g509
tp607
a(g190
g191
g509
tp608
a(g190
g191
g509
tp609
a(g190
g191
g509
tp610
a(g190
g191
g509
tp611
a(g10
g11
S'6'
p612
tp613
a(g14
g15
g612
tp614
a(g17
g18
g612
tp615
a(g20
g21
g612
tp616
a(g23
g24
g612
tp617
a(g26
g27
g612
tp618
a(g20
g21
g612
tp619
a(g30
g31
g612
tp620
a(g20
g21
g612
tp621
a(g34
g35
g612
tp622
a(g20
g21
g612
tp623
a(g38
g39
g612
tp624
a(g20
g21
g612
tp625
a(g42
g43
g612
tp626
a(g23
g24
g612
tp627
a(g46
g47
g612
tp628
a(g20
g21
g612
tp629
a(g50
g51
g612
tp630
a(g23
g24
g612
tp631
a(g20
g21
g612
tp632
a(g55
g56
g612
tp633
a(g58
g56
g612
tp634
a(g20
g21
g612
tp635
a(g61
g56
g612
tp636
a(g63
g56
g612
tp637
a(g65
g66
g612
tp638
a(g68
g69
g612
tp639
a(g71
g69
g612
tp640
a(g65
g66
g612
tp641
a(g74
g69
g612
tp642
a(g76
g69
g612
tp643
a(g78
g79
g612
tp644
a(g23
g24
g612
tp645
a(g20
g21
g612
tp646
a(g78
g79
g612
tp647
a(g23
g24
g612
tp648
a(g20
g21
g612
tp649
a(g78
g79
g612
tp650
a(g23
g24
g612
tp651
a(g20
g21
g612
tp652
a(g89
g66
g612
tp653
a(g91
g92
g612
tp654
a(g94
g95
g612
tp655
a(g97
g98
g612
tp656
a(g100
g101
g612
tp657
a(g91
g92
g612
tp658
a(g94
g95
g612
tp659
a(g97
g98
g612
tp660
a(g100
g106
g612
tp661
a(g91
g92
g612
tp662
a(g94
g95
g612
tp663
a(g97
g98
g612
tp664
a(g100
g106
g612
tp665
a(g91
g92
g612
tp666
a(g94
g95
g612
tp667
a(g97
g98
g612
tp668
a(g115
g106
g612
tp669
a(g89
g66
g612
tp670
a(g65
g66
g612
tp671
a(g23
g24
g612
tp672
a(g78
g79
g612
tp673
a(g20
g21
g612
tp674
a(g23
g24
g612
tp675
a(g78
g79
g612
tp676
a(g20
g21
g612
tp677
a(g125
g126
g612
tp678
a(g128
g126
g612
tp679
a(g130
g126
g612
tp680
a(g132
g126
g612
tp681
a(g134
g126
g612
tp682
a(g136
g137
g612
tp683
a(g139
g140
g612
tp684
a(g142
g140
g612
tp685
a(g20
g21
g612
tp686
a(g145
g56
g612
tp687
a(g147
g56
g612
tp688
a(g65
g66
g612
tp689
a(g150
g151
g612
tp690
a(g153
g151
g612
tp691
a(g155
g156
g612
tp692
a(g158
g159
g612
tp693
a(g161
g162
g612
tp694
a(g164
g47
g612
tp695
a(g166
g167
g612
tp696
a(g169
g167
g612
tp697
a(g171
g47
g612
tp698
a(g173
g174
g612
tp699
a(g176
g174
g612
tp700
a(g171
g47
g612
tp701
a(g179
g180
g612
tp702
a(g182
g180
g612
tp703
a(g171
g47
g612
tp704
a(g185
g186
g612
tp705
a(g188
g186
g612
tp706
a(g190
g191
g612
tp707
a(g190
g191
g612
tp708
a(g190
g191
g612
tp709
a(g190
g191
g612
tp710
a(g190
g191
g612
tp711
a(g190
g191
g612
tp712
a(g190
g191
g612
tp713
a(g190
g191
g612
tp714
a(g10
g11
S'7'
p715
tp716
a(g14
g15
g715
tp717
a(g17
g18
g715
tp718
a(g20
g21
g715
tp719
a(g23
g24
g715
tp720
a(g26
g27
g715
tp721
a(g20
g21
g715
tp722
a(g30
g31
g715
tp723
a(g20
g21
g715
tp724
a(g34
g35
g715
tp725
a(g20
g21
g715
tp726
a(g38
g39
g715
tp727
a(g20
g21
g715
tp728
a(g42
g43
g715
tp729
a(g23
g24
g715
tp730
a(g46
g47
g715
tp731
a(g20
g21
g715
tp732
a(g50
g51
g715
tp733
a(g23
g24
g715
tp734
a(g20
g21
g715
tp735
a(g55
g56
g715
tp736
a(g58
g56
g715
tp737
a(g20
g21
g715
tp738
a(g61
g56
g715
tp739
a(g63
g56
g715
tp740
a(g65
g66
g715
tp741
a(g68
g69
g715
tp742
a(g71
g69
g715
tp743
a(g65
g66
g715
tp744
a(g74
g69
g715
tp745
a(g76
g69
g715
tp746
a(g78
g79
g715
tp747
a(g23
g24
g715
tp748
a(g20
g21
g715
tp749
a(g78
g79
g715
tp750
a(g23
g24
g715
tp751
a(g20
g21
g715
tp752
a(g78
g79
g715
tp753
a(g23
g24
g715
tp754
a(g20
g21
g715
tp755
a(g89
g66
g715
tp756
a(g91
g92
g715
tp757
a(g94
g95
g715
tp758
a(g97
g98
g715
tp759
a(g100
g101
g715
tp760
a(g91
g92
g715
tp761
a(g94
g95
g715
tp762
a(g97
g98
g715
tp763
a(g100
g106
g715
tp764
a(g91
g92
g715
tp765
a(g94
g95
g715
tp766
a(g97
g98
g715
tp767
a(g100
g106
g715
tp768
a(g91
g92
g715
tp769
a(g94
g95
g715
tp770
a(g97
g98
g715
tp771
a(g115
g106
g715
tp772
a(g89
g66
g715
tp773
a(g65
g66
g715
tp774
a(g23
g24
g715
tp775
a(g78
g79
g715
tp776
a(g20
g21
g715
tp777
a(g23
g24
g715
tp778
a(g78
g79
g715
tp779
a(g20
g21
g715
tp780
a(g125
g126
g715
tp781
a(g128
g126
g715
tp782
a(g130
g126
g715
tp783
a(g132
g126
g715
tp784
a(g134
g126
g715
tp785
a(g136
g137
g715
tp786
a(g139
g140
g715
tp787
a(g142
g140
g715
tp788
a(g20
g21
g715
tp789
a(g145
g56
g715
tp790
a(g147
g56
g715
tp791
a(g65
g66
g715
tp792
a(g150
g151
g715
tp793
a(g153
g151
g715
tp794
a(g155
g156
g715
tp795
a(g158
g159
g715
tp796
a(g161
g162
g715
tp797
a(g164
g47
g715
tp798
a(g166
g167
g715
tp799
a(g169
g167
g715
tp800
a(g171
g47
g715
tp801
a(g173
g174
g715
tp802
a(g176
g174
g715
tp803
a(g171
g47
g715
tp804
a(g179
g180
g715
tp805
a(g182
g180
g715
tp806
a(g171
g47
g715
tp807
a(g185
g186
g715
tp808
a(g188
g186
g715
tp809
a(g190
g191
g715
tp810
a(g190
g191
g715
tp811
a(g190
g191
g715
tp812
a(g190
g191
g715
tp813
a(g190
g191
g715
tp814
a(g190
g191
g715
tp815
a(g190
g191
g715
tp816
a(g190
g191
g715
tp817
a(g10
g11
S'8'
p818
tp819
a(g14
g15
g818
tp820
a(g17
g18
g818
tp821
a(g20
g21
g818
tp822
a(g23
g24
g818
tp823
a(g26
g27
g818
tp824
a(g20
g21
g818
tp825
a(g30
g31
g818
tp826
a(g20
g21
g818
tp827
a(g34
g35
g818
tp828
a(g20
g21
g818
tp829
a(g38
g39
g818
tp830
a(g20
g21
g818
tp831
a(g42
g43
g818
tp832
a(g23
g24
g818
tp833
a(g46
g47
g818
tp834
a(g20
g21
g818
tp835
a(g50
g51
g818
tp836
a(g23
g24
g818
tp837
a(g20
g21
g818
tp838
a(g55
g56
g818
tp839
a(g58
g56
g818
tp840
a(g20
g21
g818
tp841
a(g61
g56
g818
tp842
a(g63
g56
g818
tp843
a(g65
g66
g818
tp844
a(g68
g69
g818
tp845
a(g71
g69
g818
tp846
a(g65
g66
g818
tp847
a(g74
g69
g818
tp848
a(g76
g69
g818
tp849
a(g78
g79
g818
tp850
a(g23
g24
g818
tp851
a(g20
g21
g818
tp852
a(g78
g79
g818
tp853
a(g23
g24
g818
tp854
a(g20
g21
g818
tp855
a(g78
g79
g818
tp856
a(g23
g24
g818
tp857
a(g20
g21
g818
tp858
a(g89
g66
g818
tp859
a(g91
g92
g818
tp860
a(g94
g95
g818
tp861
a(g97
g98
g818
tp862
a(g100
g101
g818
tp863
a(g91
g92
g818
tp864
a(g94
g95
g818
tp865
a(g97
g98
g818
tp866
a(g100
g106
g818
tp867
a(g91
g92
g818
tp868
a(g94
g95
g818
tp869
a(g97
g98
g818
tp870
a(g100
g106
g818
tp871
a(g91
g92
g818
tp872
a(g94
g95
g818
tp873
a(g97
g98
g818
tp874
a(g115
g106
g818
tp875
a(g89
g66
g818
tp876
a(g65
g66
g818
tp877
a(g23
g24
g818
tp878
a(g78
g79
g818
tp879
a(g20
g21
g818
tp880
a(g23
g24
g818
tp881
a(g78
g79
g818
tp882
a(g20
g21
g818
tp883
a(g125
g126
g818
tp884
a(g128
g126
g818
tp885
a(g130
g126
g818
tp886
a(g132
g126
g818
tp887
a(g134
g126
g818
tp888
a(g136
g137
g818
tp889
a(g139
g140
g818
tp890
a(g142
g140
g818
tp891
a(g20
g21
g818
tp892
a(g145
g56
g818
tp893
a(g147
g56
g818
tp894
a(g65
g66
g818
tp895
a(g150
g151
g818
tp896
a(g153
g151
g818
tp897
a(g155
g156
g818
tp898
a(g158
g159
g818
tp899
a(g161
g162
g818
tp900
a(g164
g47
g818
tp901
a(g166
g167
g818
tp902
a(g169
g167
g818
tp903
a(g171
g47
g818
tp904
a(g173
g174
g818
tp905
a(g176
g174
g818
tp906
a(g171
g47
g818
tp907
a(g179
g180
g818
tp908
a(g182
g180
g818
tp909
a(g171
g47
g818
tp910
a(g185
g186
g818
tp911
a(g188
g186
g818
tp912
a(g190
g191
g818
tp913
a(g190
g191
g818
tp914
a(g190
g191
g818
tp915
a(g190
g191
g818
tp916
a(g190
g191
g818
tp917
a(g190
g191
g818
tp918
a(g190
g191
g818
tp919
a(g190
g191
g818
tp920
a(g10
g11
S'9'
p921
tp922
a(g14
g15
g921
tp923
a(g17
g18
g921
tp924
a(g20
g21
g921
tp925
a(g23
g24
g921
tp926
a(g26
g27
g921
tp927
a(g20
g21
g921
tp928
a(g30
g31
g921
tp929
a(g20
g21
g921
tp930
a(g34
g35
g921
tp931
a(g20
g21
g921
tp932
a(g38
g39
g921
tp933
a(g20
g21
g921
tp934
a(g42
g43
g921
tp935
a(g23
g24
g921
tp936
a(g46
g47
g921
tp937
a(g20
g21
g921
tp938
a(g50
g51
g921
tp939
a(g23
g24
g921
tp940
a(g20
g21
g921
tp941
a(g55
g56
g921
tp942
a(g58
g56
g921
tp943
a(g20
g21
g921
tp944
a(g61
g56
g921
tp945
a(g63
g56
g921
tp946
a(g65
g66
g921
tp947
a(g68
g69
g921
tp948
a(g71
g69
g921
tp949
a(g65
g66
g921
tp950
a(g74
g69
g921
tp951
a(g76
g69
g921
tp952
a(g78
g79
g921
tp953
a(g23
g24
g921
tp954
a(g20
g21
g921
tp955
a(g78
g79
g921
tp956
a(g23
g24
g921
tp957
a(g20
g21
g921
tp958
a(g78
g79
g921
tp959
a(g23
g24
g921
tp960
a(g20
g21
g921
tp961
a(g89
g66
g921
tp962
a(g91
g92
g921
tp963
a(g94
g95
g921
tp964
a(g97
g98
g921
tp965
a(g100
g101
g921
tp966
a(g91
g92
g921
tp967
a(g94
g95
g921
tp968
a(g97
g98
g921
tp969
a(g100
g106
g921
tp970
a(g91
g92
g921
tp971
a(g94
g95
g921
tp972
a(g97
g98
g921
tp973
a(g100
g106
g921
tp974
a(g91
g92
g921
tp975
a(g94
g95
g921
tp976
a(g97
g98
g921
tp977
a(g115
g106
g921
tp978
a(g89
g66
g921
tp979
a(g65
g66
g921
tp980
a(g23
g24
g921
tp981
a(g78
g79
g921
tp982
a(g20
g21
g921
tp983
a(g23
g24
g921
tp984
a(g78
g79
g921
tp985
a(g20
g21
g921
tp986
a(g125
g126
g921
tp987
a(g128
g126
g921
tp988
a(g130
g126
g921
tp989
a(g132
g126
g921
tp990
a(g134
g126
g921
tp991
a(g136
g137
g921
tp992
a(g139
g140
g921
tp993
a(g142
g140
g921
tp994
a(g20
g21
g921
tp995
a(g145
g56
g921
tp996
a(g147
g56
g921
tp997
a(g65
g66
g921
tp998
a(g150
g151
g921
tp999
a(g153
g151
g921
tp1000
a(g155
g156
g921
tp1001
a(g158
g159
g921
tp1002
a(g161
g162
g921
tp1003
a(g164
g47
g921
tp1004
a(g166
g167
g921
tp1005
a(g169
g167
g921
tp1006
a(g171
g47
g921
tp1007
a(g173
g174
g921
tp1008
a(g176
g174
g921
tp1009
a(g171
g47
g921
tp1010
a(g179
g180
g921
tp1011
a(g182
g180
g921
tp1012
a(g171
g47
g921
tp1013
a(g185
g186
g921
tp1014
a(g188
g186
g921
tp1015
a(g190
g191
g921
tp1016
a(g190
g191
g921
tp1017
a(g190
g191
g921
tp1018
a(g190
g191
g921
tp1019
a(g190
g191
g921
tp1020
a(g190
g191
g921
tp1021
a(g190
g191
g921
tp1022
a(g190
g191
g921
tp1023
a(g10
g11
S'10'
p1024
tp1025
a(g14
g15
g1024
tp1026
a(g17
g18
g1024
tp1027
a(g20
g21
g1024
tp1028
a(g23
g24
g1024
tp1029
a(g26
g27
g1024
tp1030
a(g20
g21
g1024
tp1031
a(g30
g31
g1024
tp1032
a(g20
g21
g1024
tp1033
a(g34
g35
g1024
tp1034
a(g20
g21
g1024
tp1035
a(g38
g39
g1024
tp1036
a(g20
g21
g1024
tp1037
a(g42
g43
g1024
tp1038
a(g23
g24
g1024
tp1039
a(g46
g47
g1024
tp1040
a(g20
g21
g1024
tp1041
a(g50
g51
g1024
tp1042
a(g23
g24
g1024
tp1043
a(g20
g21
g1024
tp1044
a(g55
g56
g1024
tp1045
a(g58
g56
g1024
tp1046
a(g20
g21
g1024
tp1047
a(g61
g56
g1024
tp1048
a(g63
g56
g1024
tp1049
a(g65
g66
g1024
tp1050
a(g68
g69
g1024
tp1051
a(g71
g69
g1024
tp1052
a(g65
g66
g1024
tp1053
a(g74
g69
g1024
tp1054
a(g76
g69
g1024
tp1055
a(g78
g79
g1024
tp1056
a(g23
g24
g1024
tp1057
a(g20
g21
g1024
tp1058
a(g78
g79
g1024
tp1059
a(g23
g24
g1024
tp1060
a(g20
g21
g1024
tp1061
a(g78
g79
g1024
tp1062
a(g23
g24
g1024
tp1063
a(g20
g21
g1024
tp1064
a(g89
g66
g1024
tp1065
a(g91
g92
g1024
tp1066
a(g94
g95
g1024
tp1067
a(g97
g98
g1024
tp1068
a(g100
g101
g1024
tp1069
a(g91
g92
g1024
tp1070
a(g94
g95
g1024
tp1071
a(g97
g98
g1024
tp1072
a(g100
g106
g1024
tp1073
a(g91
g92
g1024
tp1074
a(g94
g95
g1024
tp1075
a(g97
g98
g1024
tp1076
a(g100
g106
g1024
tp1077
a(g91
g92
g1024
tp1078
a(g94
g95
g1024
tp1079
a(g97
g98
g1024
tp1080
a(g115
g106
g1024
tp1081
a(g89
g66
g1024
tp1082
a(g65
g66
g1024
tp1083
a(g23
g24
g1024
tp1084
a(g78
g79
g1024
tp1085
a(g20
g21
g1024
tp1086
a(g23
g24
g1024
tp1087
a(g78
g79
g1024
tp1088
a(g20
g21
g1024
tp1089
a(g125
g126
g1024
tp1090
a(g128
g126
g1024
tp1091
a(g130
g126
g1024
tp1092
a(g132
g126
g1024
tp1093
a(g134
g126
g1024
tp1094
a(g136
g137
g1024
tp1095
a(g139
g140
g1024
tp1096
a(g142
g140
g1024
tp1097
a(g20
g21
g1024
tp1098
a(g145
g56
g1024
tp1099
a(g147
g56
g1024
tp1100
a(g65
g66
g1024
tp1101
a(g150
g151
g1024
tp1102
a(g153
g151
g1024
tp1103
a(g155
g156
g1024
tp1104
a(g158
g159
g1024
tp1105
a(g161
g162
g1024
tp1106
a(g164
g47
g1024
tp1107
a(g166
g167
g1024
tp1108
a(g169
g167
g1024
tp1109
a(g171
g47
g1024
tp1110
a(g173
g174
g1024
tp1111
a(g176
g174
g1024
tp1112
a(g171
g47
g1024
tp1113
a(g179
g180
g1024
tp1114
a(g182
g180
g1024
tp1115
a(g171
g47
g1024
tp1116
a(g185
g186
g1024
tp1117
a(g188
g186
g1024
tp1118
a(g190
g191
g1024
tp1119
a(g190
g191
g1024
tp1120
a(g190
g191
g1024
tp1121
a(g190
g191
g1024
tp1122
a(g190
g191
g1024
tp1123
a(g190
g191
g1024
tp1124
a(g190
g191
g1024
tp1125
a(g190
g191
g1024
tp1126
asS'name'
p1127
S'Barrel 130nm Hybrid'
p1128
sb.